; Function Attrs: nounwind uwtable
define internal range(i32 0, 2) i32 @pkey_dsa_copy(ptr noundef writeonly captures(none) %0, ptr noundef readonly captures(none) %1) #1 {
  %3 = tail call noalias ptr @CRYPTO_malloc(i64 noundef 32, ptr noundef nonnull @.str, i32 noundef 40) #7
  %4 = icmp eq ptr %3, null
  br i1 %4, label %pkey_dsa_init.exit.thread, label %5

5:                                                ; preds = %2
  store i32 2048, ptr %3, align 8, !tbaa !3
  %6 = getelementptr inbounds nuw i8, ptr %3, i64 4
  store i32 224, ptr %6, align 4, !tbaa !10
  %7 = getelementptr inbounds nuw i8, ptr %3, i64 8
  store ptr null, ptr %7, align 8, !tbaa !11
  %8 = getelementptr inbounds nuw i8, ptr %3, i64 24
  store ptr null, ptr %8, align 8, !tbaa !12
  %9 = getelementptr inbounds nuw i8, ptr %0, i64 152
  store ptr %3, ptr %9, align 8, !tbaa !13
  %10 = getelementptr inbounds nuw i8, ptr %3, i64 16
  %11 = getelementptr inbounds nuw i8, ptr %0, i64 104
  store ptr %10, ptr %11, align 8, !tbaa !25
  %12 = getelementptr inbounds nuw i8, ptr %0, i64 112
  store i32 2, ptr %12, align 8, !tbaa !26
  %13 = getelementptr inbounds nuw i8, ptr %1, i64 152
  %14 = load ptr, ptr %13, align 8, !tbaa !13
  %15 = load i32, ptr %14, align 8, !tbaa !3
  store i32 %15, ptr %3, align 8, !tbaa !3
  %16 = getelementptr inbounds nuw i8, ptr %14, i64 4
  %17 = load i32, ptr %16, align 4, !tbaa !10
  store i32 %17, ptr %6, align 4, !tbaa !10
  %18 = getelementptr inbounds nuw i8, ptr %14, i64 8
  %19 = load ptr, ptr %18, align 8, !tbaa !11
  store ptr %19, ptr %7, align 8, !tbaa !11
  %20 = getelementptr inbounds nuw i8, ptr %14, i64 24
  %21 = load ptr, ptr %20, align 8, !tbaa !12
  store ptr %21, ptr %8, align 8, !tbaa !12
  br label %pkey_dsa_init.exit.thread

pkey_dsa_init.exit.thread:                        ; preds = %2, %5
  %.0 = phi i32 [ 1, %5 ], [ 0, %2 ]
  ret i32 %.0
}